; Function Attrs: nounwind uwtable
define ptr @ossl_prov_import_key(ptr noundef readonly captures(none) %0, ptr noundef %1, i32 noundef %2, ptr noundef %3) local_unnamed_addr #1 {
  br label %5

5:                                                ; preds = %9, %4
  %.0.i = phi ptr [ %0, %4 ], [ %10, %9 ]
  %6 = load i32, ptr %.0.i, align 8, !tbaa !3
  switch i32 %6, label %9 [
    i32 0, label %ossl_prov_get_keymgmt_new.exit
    i32 1, label %7
  ]

7:                                                ; preds = %5
  %8 = getelementptr i8, ptr %.0.i, i64 8
  %.0.val.i = load ptr, ptr %8, align 8, !tbaa !9
  br label %ossl_prov_get_keymgmt_new.exit

9:                                                ; preds = %5
  %10 = getelementptr inbounds nuw i8, ptr %.0.i, i64 16
  br label %5, !llvm.loop !10

ossl_prov_get_keymgmt_new.exit:                   ; preds = %5, %7
  %.05.i = phi ptr [ %.0.val.i, %7 ], [ null, %5 ]
  br label %11

11:                                               ; preds = %15, %ossl_prov_get_keymgmt_new.exit
  %.0.i21 = phi ptr [ %0, %ossl_prov_get_keymgmt_new.exit ], [ %16, %15 ]
  %12 = load i32, ptr %.0.i21, align 8, !tbaa !3
  switch i32 %12, label %15 [
    i32 0, label %ossl_prov_get_keymgmt_free.exit
    i32 10, label %13
  ]

13:                                               ; preds = %11
  %14 = getelementptr i8, ptr %.0.i21, i64 8
  %.0.val.i22 = load ptr, ptr %14, align 8, !tbaa !9
  br label %ossl_prov_get_keymgmt_free.exit

15:                                               ; preds = %11
  %16 = getelementptr inbounds nuw i8, ptr %.0.i21, i64 16
  br label %11, !llvm.loop !12

ossl_prov_get_keymgmt_free.exit:                  ; preds = %11, %13
  %.05.i23 = phi ptr [ %.0.val.i22, %13 ], [ null, %11 ]
  br label %17

17:                                               ; preds = %19, %ossl_prov_get_keymgmt_free.exit
  %.0.i24 = phi ptr [ %0, %ossl_prov_get_keymgmt_free.exit ], [ %20, %19 ]
  %18 = load i32, ptr %.0.i24, align 8, !tbaa !3
  switch i32 %18, label %19 [
    i32 0, label %ossl_prov_get_keymgmt_import.exit.thread
    i32 40, label %ossl_prov_get_keymgmt_import.exit
  ]

19:                                               ; preds = %17
  %20 = getelementptr inbounds nuw i8, ptr %.0.i24, i64 16
  br label %17, !llvm.loop !13

ossl_prov_get_keymgmt_import.exit:                ; preds = %17
  %21 = getelementptr i8, ptr %.0.i24, i64 8
  %.0.val.i25 = load ptr, ptr %21, align 8, !tbaa !9
  %22 = icmp ne ptr %.05.i, null
  %23 = icmp ne ptr %.0.val.i25, null
  %or.cond = select i1 %22, i1 %23, i1 false
  %24 = icmp ne ptr %.05.i23, null
  %or.cond3 = select i1 %or.cond, i1 %24, i1 false
  br i1 %or.cond3, label %25, label %ossl_prov_get_keymgmt_import.exit.thread

25:                                               ; preds = %ossl_prov_get_keymgmt_import.exit
  %26 = tail call ptr %.05.i(ptr noundef %1) #4
  %27 = icmp eq ptr %26, null
  br i1 %27, label %30, label %28

28:                                               ; preds = %25
  %29 = tail call i32 %.0.val.i25(ptr noundef nonnull %26, i32 noundef %2, ptr noundef %3) #4
  %.not = icmp eq i32 %29, 0
  br i1 %.not, label %30, label %ossl_prov_get_keymgmt_import.exit.thread

30:                                               ; preds = %28, %25
  tail call void %.05.i23(ptr noundef %26) #4
  br label %ossl_prov_get_keymgmt_import.exit.thread

ossl_prov_get_keymgmt_import.exit.thread:         ; preds = %17, %28, %30, %ossl_prov_get_keymgmt_import.exit
  %.0 = phi ptr [ null, %30 ], [ %26, %28 ], [ null, %ossl_prov_get_keymgmt_import.exit ], [ null, %17 ]
  ret ptr %.0
}